target datalayout = "e-m:e-p270:32:32-p271:32:32-p272:64:64-i64:64-i128:128-f80:128-n8:16:32:64-S128"
target triple = "x86_64-pc-linux-gnu"

; Function Attrs: mustprogress nounwind uwtable
define internal noundef i32 @_ZL12is_leap_yearl(i64 noundef %0) #4 {
  %2 = alloca i64, align 8
  store i64 %0, ptr %2, align 8, !tbaa !88
  %3 = load i64, ptr %2, align 8, !tbaa !88
  %4 = srem i64 %3, 4
  %5 = icmp eq i64 %4, 0
  br i1 %5, label %6, label %10

6:                                                ; preds = %1
  %7 = load i64, ptr %2, align 8, !tbaa !88
  %8 = srem i64 %7, 100
  %9 = icmp ne i64 %8, 0
  br i1 %9, label %14, label %10

10:                                               ; preds = %6, %1
  %11 = load i64, ptr %2, align 8, !tbaa !88
  %12 = srem i64 %11, 400
  %13 = icmp eq i64 %12, 0
  br label %14

14:                                               ; preds = %10, %6
  %15 = phi i1 [ true, %6 ], [ %13, %10 ]
  %16 = zext i1 %15 to i32
  ret i32 %16
}

; Function Attrs: mustprogress uwtable
define internal noundef i32 @_ZL12days_in_yearl(i64 noundef %0) #0 {
  %2 = alloca i64, align 8
  store i64 %0, ptr %2, align 8, !tbaa !88
  %3 = load i64, ptr %2, align 8, !tbaa !88
  %4 = call noundef i32 @_ZL12is_leap_yearl(i64 noundef %3)
  %5 = icmp ne i32 %4, 0
  %6 = select i1 %5, i32 366, i32 365
  ret i32 %6
}

; Function Attrs: mustprogress uwtable
define internal noundef double @_ZL18mjd_to_decimalyeard(double noundef %0) #0 {
  %2 = alloca double, align 8
  %3 = alloca double, align 8
  %4 = alloca double, align 8
  %5 = alloca i32, align 4
  store double %0, ptr %2, align 8, !tbaa !62
  call void @llvm.lifetime.start.p0(i64 8, ptr %3) #10
  %6 = load double, ptr %2, align 8, !tbaa !62
  store double %6, ptr %3, align 8, !tbaa !62
  call void @llvm.lifetime.start.p0(i64 8, ptr %4) #10
  store double 4.500000e+01, ptr %4, align 8, !tbaa !62
  call void @llvm.lifetime.start.p0(i64 4, ptr %5) #10
  store i32 1859, ptr %5, align 4, !tbaa !43
  br label %7

7:                                                ; preds = %18, %1
  %8 = load double, ptr %2, align 8, !tbaa !62
  %9 = load double, ptr %4, align 8, !tbaa !62
  %10 = fcmp oge double %8, %9
  br i1 %10, label %11, label %21

11:                                               ; preds = %7
  %12 = load i32, ptr %5, align 4, !tbaa !43
  %13 = sext i32 %12 to i64
  %14 = call noundef i32 @_ZL12days_in_yearl(i64 noundef %13)
  %15 = sitofp i32 %14 to double
  %16 = load double, ptr %4, align 8, !tbaa !62
  %17 = fadd double %16, %15
  store double %17, ptr %4, align 8, !tbaa !62
  br label %18

18:                                               ; preds = %11
  %19 = load i32, ptr %5, align 4, !tbaa !43
  %20 = add nsw i32 %19, 1
  store i32 %20, ptr %5, align 4, !tbaa !43
  br label %7, !llvm.loop !90

21:                                               ; preds = %7
  %22 = load i32, ptr %5, align 4, !tbaa !43
  %23 = add nsw i32 %22, -1
  store i32 %23, ptr %5, align 4, !tbaa !43
  %24 = load i32, ptr %5, align 4, !tbaa !43
  %25 = sext i32 %24 to i64
  %26 = call noundef i32 @_ZL12days_in_yearl(i64 noundef %25)
  %27 = sitofp i32 %26 to double
  %28 = load double, ptr %4, align 8, !tbaa !62
  %29 = fsub double %28, %27
  store double %29, ptr %4, align 8, !tbaa !62
  %30 = load i32, ptr %5, align 4, !tbaa !43
  %31 = sitofp i32 %30 to double
  %32 = load double, ptr %2, align 8, !tbaa !62
  %33 = load double, ptr %4, align 8, !tbaa !62
  %34 = fsub double %32, %33
  %35 = load i32, ptr %5, align 4, !tbaa !43
  %36 = sext i32 %35 to i64
  %37 = call noundef i32 @_ZL12days_in_yearl(i64 noundef %36)
  %38 = sitofp i32 %37 to double
  %39 = fdiv double %34, %38
  %40 = fadd double %31, %39
  store double %40, ptr %3, align 8, !tbaa !62
  %41 = load double, ptr %3, align 8, !tbaa !62
  call void @llvm.lifetime.end.p0(i64 4, ptr %5) #10
  call void @llvm.lifetime.end.p0(i64 8, ptr %4) #10
  call void @llvm.lifetime.end.p0(i64 8, ptr %3) #10
  ret double %41
}