; Function Attrs: mustprogress nofree norecurse nosync nounwind willreturn memory(none) uwtable
define internal noundef double @_ZL18mjd_to_decimalyeard(double noundef %0) #6 {
  %2 = fcmp ult double %0, 4.500000e+01
  br i1 %2, label %_ZL12is_leap_yearl.exit.i23, label %.lr.ph

.lr.ph:                                           ; preds = %1, %_ZL12days_in_yearl.exit
  %.035 = phi i32 [ %10, %_ZL12days_in_yearl.exit ], [ 1859, %1 ]
  %.01334 = phi double [ %9, %_ZL12days_in_yearl.exit ], [ 4.500000e+01, %1 ]
  %3 = and i32 %.035, 3
  %4 = icmp ne i32 %3, 0
  %5 = urem i32 %.035, 100
  %.not.i.i = icmp eq i32 %5, 0
  %or.cond.i.i = or i1 %4, %.not.i.i
  br i1 %or.cond.i.i, label %_ZL12is_leap_yearl.exit.i, label %_ZL12days_in_yearl.exit

_ZL12is_leap_yearl.exit.i:                        ; preds = %.lr.ph
  %6 = urem i32 %.035, 400
  %.not.i = icmp eq i32 %6, 0
  %spec.select.i = select i1 %.not.i, i32 366, i32 365
  %7 = uitofp nneg i32 %spec.select.i to double
  br label %_ZL12days_in_yearl.exit

_ZL12days_in_yearl.exit:                          ; preds = %.lr.ph, %_ZL12is_leap_yearl.exit.i
  %8 = phi double [ 3.660000e+02, %.lr.ph ], [ %7, %_ZL12is_leap_yearl.exit.i ]
  %9 = fadd double %.01334, %8
  %10 = add nuw nsw i32 %.035, 1
  %11 = fcmp ult double %0, %9
  br i1 %11, label %._crit_edge, label %.lr.ph, !llvm.loop !80

._crit_edge:                                      ; preds = %_ZL12days_in_yearl.exit
  %12 = and i32 %.035, 3
  %13 = icmp ne i32 %12, 0
  %14 = urem i32 %.035, 100
  %.not.i.i15 = icmp eq i32 %14, 0
  %or.cond.i.i16 = or i1 %13, %.not.i.i15
  br i1 %or.cond.i.i16, label %_ZL12is_leap_yearl.exit.i23, label %_ZL12days_in_yearl.exit20

_ZL12days_in_yearl.exit20:                        ; preds = %._crit_edge
  %15 = fadd double %9, -3.660000e+02
  br label %_ZL12days_in_yearl.exit26

_ZL12is_leap_yearl.exit.i23:                      ; preds = %1, %._crit_edge
  %.0.lcssa42 = phi i32 [ %.035, %._crit_edge ], [ 1858, %1 ]
  %.013.lcssa41 = phi double [ %9, %._crit_edge ], [ 4.500000e+01, %1 ]
  %16 = urem i32 %.0.lcssa42, 400
  %.not.i18 = icmp eq i32 %16, 0
  %spec.select.i19 = select i1 %.not.i18, i32 366, i32 365
  %17 = uitofp nneg i32 %spec.select.i19 to double
  %18 = fsub double %.013.lcssa41, %17
  br label %_ZL12days_in_yearl.exit26

_ZL12days_in_yearl.exit26:                        ; preds = %_ZL12days_in_yearl.exit20, %_ZL12is_leap_yearl.exit.i23
  %.0.lcssa43 = phi i32 [ %.035, %_ZL12days_in_yearl.exit20 ], [ %.0.lcssa42, %_ZL12is_leap_yearl.exit.i23 ]
  %.pn = phi double [ %15, %_ZL12days_in_yearl.exit20 ], [ %18, %_ZL12is_leap_yearl.exit.i23 ]
  %19 = phi double [ 3.660000e+02, %_ZL12days_in_yearl.exit20 ], [ %17, %_ZL12is_leap_yearl.exit.i23 ]
  %20 = uitofp nneg i32 %.0.lcssa43 to double
  %21 = fsub double %0, %.pn
  %22 = fdiv double %21, %19
  %23 = fadd double %22, %20
  ret double %23
}